target datalayout = "e-m:e-p270:32:32-p271:32:32-p272:64:64-i64:64-i128:128-f80:128-n8:16:32:64-S128"
target triple = "x86_64-pc-linux-gnu"

%class.dtNavMeshQuery = type { ptr, %"struct.dtNavMeshQuery::dtQueryData", ptr, ptr, ptr }
%"struct.dtNavMeshQuery::dtQueryData" = type { i32, ptr, float, i32, i32, [3 x float], [3 x float], ptr, i32, float }

@.str = private unnamed_addr constant [6 x i8] c"m_nav\00", align 1
@.str.1 = private unnamed_addr constant [148 x i8] c"generated/home/dtcxzyw/WorkSpace/Projects/compilers/llvm-opt-benchmark/bench/recastnavigation/recastnavigation/Detour/Source/DetourNavMeshQuery.cpp\00", align 1

; Function Attrs: mustprogress nounwind uwtable
define linkonce_odr noundef zeroext i1 @_ZSt8isfinitef(float noundef %0) #0 comdat {
  %2 = alloca float, align 4
  store float %0, ptr %2, align 4
  %3 = load float, ptr %2, align 4
  %4 = call i1 @llvm.is.fpclass.f32(float %3, i32 504)
  ret i1 %4
}

; Function Attrs: mustprogress uwtable
define linkonce_odr noundef zeroext i1 @_Z14dtMathIsfinitef(float noundef %0) #1 comdat {
  %2 = alloca float, align 4
  store float %0, ptr %2, align 4
  %3 = load float, ptr %2, align 4
  %4 = call noundef zeroext i1 @_ZSt8isfinitef(float noundef %3)
  ret i1 %4
}

; Function Attrs: mustprogress uwtable
define linkonce_odr noundef zeroext i1 @_Z11dtVisfinitePKf(ptr noundef %0) #1 comdat {
  %2 = alloca ptr, align 8
  %3 = alloca i8, align 1
  store ptr %0, ptr %2, align 8
  %4 = load ptr, ptr %2, align 8
  %5 = getelementptr inbounds float, ptr %4, i64 0
  %6 = load float, ptr %5, align 4
  %7 = call noundef zeroext i1 @_Z14dtMathIsfinitef(float noundef %6)
  br i1 %7, label %8, label %18

8:                                                ; preds = %1
  %9 = load ptr, ptr %2, align 8
  %10 = getelementptr inbounds float, ptr %9, i64 1
  %11 = load float, ptr %10, align 4
  %12 = call noundef zeroext i1 @_Z14dtMathIsfinitef(float noundef %11)
  br i1 %12, label %13, label %18

13:                                               ; preds = %8
  %14 = load ptr, ptr %2, align 8
  %15 = getelementptr inbounds float, ptr %14, i64 2
  %16 = load float, ptr %15, align 4
  %17 = call noundef zeroext i1 @_Z14dtMathIsfinitef(float noundef %16)
  br label %18

18:                                               ; preds = %13, %8, %1
  %19 = phi i1 [ false, %8 ], [ false, %1 ], [ %17, %13 ]
  %20 = zext i1 %19 to i8
  store i8 %20, ptr %3, align 1
  %21 = load i8, ptr %3, align 1
  %22 = trunc i8 %21 to i1
  ret i1 %22
}

; Function Attrs: mustprogress uwtable
define noundef i32 @_ZNK14dtNavMeshQuery18closestPointOnPolyEjPKfPfPb(ptr noundef nonnull align 8 dereferenceable(104) %0, i32 noundef %1, ptr noundef %2, ptr noundef %3, ptr noundef %4) #1 align 2 {
  %6 = alloca i32, align 4
  %7 = alloca ptr, align 8
  %8 = alloca i32, align 4
  %9 = alloca ptr, align 8
  %10 = alloca ptr, align 8
  %11 = alloca ptr, align 8
  %12 = alloca ptr, align 8
  store ptr %0, ptr %7, align 8
  store i32 %1, ptr %8, align 4
  store ptr %2, ptr %9, align 8
  store ptr %3, ptr %10, align 8
  store ptr %4, ptr %11, align 8
  %13 = load ptr, ptr %7, align 8
  %14 = call noundef ptr @_Z21dtAssertFailGetCustomv()
  store ptr %14, ptr %12, align 8
  %15 = load ptr, ptr %12, align 8
  %16 = icmp eq ptr %15, null
  br i1 %16, label %17, label %18

17:                                               ; preds = %5
  br label %25

18:                                               ; preds = %5
  %19 = getelementptr inbounds %class.dtNavMeshQuery, ptr %13, i32 0, i32 0
  %20 = load ptr, ptr %19, align 8
  %21 = icmp ne ptr %20, null
  br i1 %21, label %24, label %22

22:                                               ; preds = %18
  %23 = load ptr, ptr %12, align 8
  call void %23(ptr noundef @.str, ptr noundef @.str.1, i32 noundef 513)
  br label %24

24:                                               ; preds = %22, %18
  br label %25

25:                                               ; preds = %24, %17
  %26 = getelementptr inbounds %class.dtNavMeshQuery, ptr %13, i32 0, i32 0
  %27 = load ptr, ptr %26, align 8
  %28 = load i32, ptr %8, align 4
  %29 = call noundef zeroext i1 @_ZNK9dtNavMesh14isValidPolyRefEj(ptr noundef nonnull align 8 dereferenceable(100) %27, i32 noundef %28)
  br i1 %29, label %30, label %39

30:                                               ; preds = %25
  %31 = load ptr, ptr %9, align 8
  %32 = icmp ne ptr %31, null
  br i1 %32, label %33, label %39

33:                                               ; preds = %30
  %34 = load ptr, ptr %9, align 8
  %35 = call noundef zeroext i1 @_Z11dtVisfinitePKf(ptr noundef %34)
  br i1 %35, label %36, label %39

36:                                               ; preds = %33
  %37 = load ptr, ptr %10, align 8
  %38 = icmp ne ptr %37, null
  br i1 %38, label %40, label %39

39:                                               ; preds = %36, %33, %30, %25
  store i32 -2147483640, ptr %6, align 4
  br label %47

40:                                               ; preds = %36
  %41 = getelementptr inbounds %class.dtNavMeshQuery, ptr %13, i32 0, i32 0
  %42 = load ptr, ptr %41, align 8
  %43 = load i32, ptr %8, align 4
  %44 = load ptr, ptr %9, align 8
  %45 = load ptr, ptr %10, align 8
  %46 = load ptr, ptr %11, align 8
  call void @_ZNK9dtNavMesh18closestPointOnPolyEjPKfPfPb(ptr noundef nonnull align 8 dereferenceable(100) %42, i32 noundef %43, ptr noundef %44, ptr noundef %45, ptr noundef %46)
  store i32 1073741824, ptr %6, align 4
  br label %47

47:                                               ; preds = %40, %39
  %48 = load i32, ptr %6, align 4
  ret i32 %48
}