; Function Attrs: mustprogress uwtable
define noundef i32 @_ZNK14dtNavMeshQuery18closestPointOnPolyEjPKfPfPb(ptr nocapture noundef nonnull readonly align 8 dereferenceable(104) %0, i32 noundef %1, ptr noundef %2, ptr noundef %3, ptr noundef %4) local_unnamed_addr #1 align 2 {
  %6 = tail call noundef ptr @_Z21dtAssertFailGetCustomv()
  %7 = icmp ne ptr %6, null
  %8 = load ptr, ptr %0, align 8
  %.not = icmp eq ptr %8, null
  %or.cond17 = select i1 %7, i1 %.not, i1 false
  br i1 %or.cond17, label %9, label %10

9:                                                ; preds = %5
  tail call void %6(ptr noundef nonnull @.str, ptr noundef nonnull @.str.1, i32 noundef 513)
  %.pre = load ptr, ptr %0, align 8
  br label %10

10:                                               ; preds = %9, %5
  %11 = phi ptr [ %.pre, %9 ], [ %8, %5 ]
  %12 = tail call noundef zeroext i1 @_ZNK9dtNavMesh14isValidPolyRefEj(ptr noundef nonnull align 8 dereferenceable(100) %11, i32 noundef %1)
  %13 = icmp ne ptr %2, null
  %or.cond = and i1 %13, %12
  br i1 %or.cond, label %14, label %_Z11dtVisfinitePKf.exit.thread

14:                                               ; preds = %10
  %15 = load float, ptr %2, align 4
  %16 = tail call float @llvm.fabs.f32(float %15)
  %17 = fcmp ueq float %16, 0x7FF0000000000000
  br i1 %17, label %_Z11dtVisfinitePKf.exit.thread, label %18

18:                                               ; preds = %14
  %19 = getelementptr inbounds i8, ptr %2, i64 4
  %20 = load float, ptr %19, align 4
  %21 = tail call float @llvm.fabs.f32(float %20)
  %22 = fcmp ueq float %21, 0x7FF0000000000000
  br i1 %22, label %_Z11dtVisfinitePKf.exit.thread, label %_Z11dtVisfinitePKf.exit

_Z11dtVisfinitePKf.exit:                          ; preds = %18
  %23 = getelementptr inbounds i8, ptr %2, i64 8
  %24 = load float, ptr %23, align 4
  %25 = tail call float @llvm.fabs.f32(float %24)
  %26 = fcmp one float %25, 0x7FF0000000000000
  %27 = icmp ne ptr %3, null
  %or.cond3 = and i1 %27, %26
  br i1 %or.cond3, label %28, label %_Z11dtVisfinitePKf.exit.thread

28:                                               ; preds = %_Z11dtVisfinitePKf.exit
  %29 = load ptr, ptr %0, align 8
  tail call void @_ZNK9dtNavMesh18closestPointOnPolyEjPKfPfPb(ptr noundef nonnull align 8 dereferenceable(100) %29, i32 noundef %1, ptr noundef nonnull %2, ptr noundef nonnull %3, ptr noundef %4)
  br label %_Z11dtVisfinitePKf.exit.thread

_Z11dtVisfinitePKf.exit.thread:                   ; preds = %14, %18, %10, %_Z11dtVisfinitePKf.exit, %28
  %.0 = phi i32 [ 1073741824, %28 ], [ -2147483640, %_Z11dtVisfinitePKf.exit ], [ -2147483640, %10 ], [ -2147483640, %18 ], [ -2147483640, %14 ]
  ret i32 %.0
}